target datalayout = "e-m:e-p270:32:32-p271:32:32-p272:64:64-i64:64-i128:128-f80:128-n8:16:32:64-S128"
target triple = "x86_64-pc-linux-gnu"

%struct.env_md_ctx_st = type { ptr, ptr, ptr, ptr }
%struct.rsa_st = type { ptr, ptr, ptr, ptr, ptr, ptr, ptr, ptr, ptr, ptr, %struct.crypto_ex_data_st, i32, i32, %union.crypto_mutex_st, ptr, ptr, ptr, i32, ptr, ptr }
%struct.crypto_ex_data_st = type { ptr }
%union.crypto_mutex_st = type { double, [48 x i8] }

@.str = private unnamed_addr constant [124 x i8] c"generated/home/dtcxzyw/WorkSpace/Projects/compilers/llvm-opt-benchmark/bench/libquic/libquic/boringssl/crypto/rsa/padding.c\00", align 1
@zeroes = internal constant [8 x i8] zeroinitializer, align 1

; Function Attrs: nounwind uwtable
define hidden i32 @RSA_padding_add_PKCS1_PSS_mgf1(ptr noundef %0, ptr noundef %1, ptr noundef %2, ptr noundef %3, ptr noundef %4, i32 noundef %5) #0 {
  %7 = alloca ptr, align 8
  %8 = alloca ptr, align 8
  %9 = alloca ptr, align 8
  %10 = alloca ptr, align 8
  %11 = alloca ptr, align 8
  %12 = alloca i32, align 4
  %13 = alloca i32, align 4
  %14 = alloca i32, align 4
  %15 = alloca i64, align 8
  %16 = alloca i64, align 8
  %17 = alloca i64, align 8
  %18 = alloca i64, align 8
  %19 = alloca ptr, align 8
  %20 = alloca ptr, align 8
  %21 = alloca ptr, align 8
  %22 = alloca %struct.env_md_ctx_st, align 8
  store ptr %0, ptr %7, align 8, !tbaa !27
  store ptr %1, ptr %8, align 8, !tbaa !6
  store ptr %2, ptr %9, align 8, !tbaa !6
  store ptr %3, ptr %10, align 8, !tbaa !19
  store ptr %4, ptr %11, align 8, !tbaa !19
  store i32 %5, ptr %12, align 4, !tbaa !11
  call void @llvm.lifetime.start.p0(i64 4, ptr %13) #9
  call void @llvm.lifetime.start.p0(i64 4, ptr %14) #9
  store i32 0, ptr %14, align 4, !tbaa !11
  call void @llvm.lifetime.start.p0(i64 8, ptr %15) #9
  call void @llvm.lifetime.start.p0(i64 8, ptr %16) #9
  call void @llvm.lifetime.start.p0(i64 8, ptr %17) #9
  call void @llvm.lifetime.start.p0(i64 8, ptr %18) #9
  call void @llvm.lifetime.start.p0(i64 8, ptr %19) #9
  call void @llvm.lifetime.start.p0(i64 8, ptr %20) #9
  store ptr null, ptr %20, align 8, !tbaa !6
  call void @llvm.lifetime.start.p0(i64 8, ptr %21) #9
  call void @llvm.lifetime.start.p0(i64 32, ptr %22) #9
  %23 = load ptr, ptr %11, align 8, !tbaa !19
  %24 = icmp eq ptr %23, null
  br i1 %24, label %25, label %27

25:                                               ; preds = %6
  %26 = load ptr, ptr %10, align 8, !tbaa !19
  store ptr %26, ptr %11, align 8, !tbaa !19
  br label %27

27:                                               ; preds = %25, %6
  %28 = load ptr, ptr %10, align 8, !tbaa !19
  %29 = call i64 @EVP_MD_size(ptr noundef %28)
  store i64 %29, ptr %18, align 8, !tbaa !29
  %30 = load i32, ptr %12, align 4, !tbaa !11
  %31 = icmp eq i32 %30, -1
  br i1 %31, label %32, label %35

32:                                               ; preds = %27
  %33 = load i64, ptr %18, align 8, !tbaa !29
  %34 = trunc i64 %33 to i32
  store i32 %34, ptr %12, align 4, !tbaa !11
  br label %45

35:                                               ; preds = %27
  %36 = load i32, ptr %12, align 4, !tbaa !11
  %37 = icmp eq i32 %36, -2
  br i1 %37, label %38, label %39

38:                                               ; preds = %35
  store i32 -2, ptr %12, align 4, !tbaa !11
  br label %44

39:                                               ; preds = %35
  %40 = load i32, ptr %12, align 4, !tbaa !11
  %41 = icmp slt i32 %40, -2
  br i1 %41, label %42, label %43

42:                                               ; preds = %39
  call void @ERR_put_error(i32 noundef 4, i32 noundef 0, i32 noundef 138, ptr noundef @.str, i32 noundef 623)
  br label %220

43:                                               ; preds = %39
  br label %44

44:                                               ; preds = %43, %38
  br label %45

45:                                               ; preds = %44, %32
  %46 = load ptr, ptr %7, align 8, !tbaa !27
  %47 = getelementptr inbounds nuw %struct.rsa_st, ptr %46, i32 0, i32 1
  %48 = load ptr, ptr %47, align 8, !tbaa !31
  %49 = call i32 @BN_is_zero(ptr noundef %48)
  %50 = icmp ne i32 %49, 0
  br i1 %50, label %51, label %52

51:                                               ; preds = %45
  call void @ERR_put_error(i32 noundef 4, i32 noundef 0, i32 noundef 120, ptr noundef @.str, i32 noundef 628)
  br label %220

52:                                               ; preds = %45
  %53 = load ptr, ptr %7, align 8, !tbaa !27
  %54 = getelementptr inbounds nuw %struct.rsa_st, ptr %53, i32 0, i32 1
  %55 = load ptr, ptr %54, align 8, !tbaa !31
  %56 = call i32 @BN_num_bits(ptr noundef %55)
  %57 = sub i32 %56, 1
  %58 = and i32 %57, 7
  %59 = zext i32 %58 to i64
  store i64 %59, ptr %16, align 8, !tbaa !29
  %60 = load ptr, ptr %7, align 8, !tbaa !27
  %61 = call i32 @RSA_size(ptr noundef %60)
  %62 = zext i32 %61 to i64
  store i64 %62, ptr %17, align 8, !tbaa !29
  %63 = load i64, ptr %16, align 8, !tbaa !29
  %64 = icmp eq i64 %63, 0
  br i1 %64, label %65, label %70

65:                                               ; preds = %52
  %66 = load ptr, ptr %8, align 8, !tbaa !6
  %67 = getelementptr inbounds nuw i8, ptr %66, i32 1
  store ptr %67, ptr %8, align 8, !tbaa !6
  store i8 0, ptr %66, align 1, !tbaa !13
  %68 = load i64, ptr %17, align 8, !tbaa !29
  %69 = add i64 %68, -1
  store i64 %69, ptr %17, align 8, !tbaa !29
  br label %70

70:                                               ; preds = %65, %52
  %71 = load i32, ptr %12, align 4, !tbaa !11
  %72 = icmp eq i32 %71, -2
  br i1 %72, label %73, label %85

73:                                               ; preds = %70
  %74 = load i64, ptr %17, align 8, !tbaa !29
  %75 = load i64, ptr %18, align 8, !tbaa !29
  %76 = add i64 %75, 2
  %77 = icmp ult i64 %74, %76
  br i1 %77, label %78, label %79

78:                                               ; preds = %73
  call void @ERR_put_error(i32 noundef 4, i32 noundef 0, i32 noundef 114, ptr noundef @.str, i32 noundef 641)
  br label %220

79:                                               ; preds = %73
  %80 = load i64, ptr %17, align 8, !tbaa !29
  %81 = load i64, ptr %18, align 8, !tbaa !29
  %82 = sub i64 %80, %81
  %83 = sub i64 %82, 2
  %84 = trunc i64 %83 to i32
  store i32 %84, ptr %12, align 4, !tbaa !11
  br label %95

85:                                               ; preds = %70
  %86 = load i64, ptr %17, align 8, !tbaa !29
  %87 = load i64, ptr %18, align 8, !tbaa !29
  %88 = load i32, ptr %12, align 4, !tbaa !11
  %89 = sext i32 %88 to i64
  %90 = add i64 %87, %89
  %91 = add i64 %90, 2
  %92 = icmp ult i64 %86, %91
  br i1 %92, label %93, label %94

93:                                               ; preds = %85
  call void @ERR_put_error(i32 noundef 4, i32 noundef 0, i32 noundef 114, ptr noundef @.str, i32 noundef 646)
  br label %220

94:                                               ; preds = %85
  br label %95

95:                                               ; preds = %94, %79
  %96 = load i32, ptr %12, align 4, !tbaa !11
  %97 = icmp sgt i32 %96, 0
  br i1 %97, label %98, label %113

98:                                               ; preds = %95
  %99 = load i32, ptr %12, align 4, !tbaa !11
  %100 = sext i32 %99 to i64
  %101 = call noalias ptr @malloc(i64 noundef %100) #10
  store ptr %101, ptr %20, align 8, !tbaa !6
  %102 = load ptr, ptr %20, align 8, !tbaa !6
  %103 = icmp ne ptr %102, null
  br i1 %103, label %105, label %104

104:                                              ; preds = %98
  call void @ERR_put_error(i32 noundef 4, i32 noundef 0, i32 noundef 65, ptr noundef @.str, i32 noundef 652)
  br label %220

105:                                              ; preds = %98
  %106 = load ptr, ptr %20, align 8, !tbaa !6
  %107 = load i32, ptr %12, align 4, !tbaa !11
  %108 = sext i32 %107 to i64
  %109 = call i32 @RAND_bytes(ptr noundef %106, i64 noundef %108)
  %110 = icmp ne i32 %109, 0
  br i1 %110, label %112, label %111

111:                                              ; preds = %105
  br label %220

112:                                              ; preds = %105
  br label %113

113:                                              ; preds = %112, %95
  %114 = load i64, ptr %17, align 8, !tbaa !29
  %115 = load i64, ptr %18, align 8, !tbaa !29
  %116 = sub i64 %114, %115
  %117 = sub i64 %116, 1
  store i64 %117, ptr %15, align 8, !tbaa !29
  %118 = load ptr, ptr %8, align 8, !tbaa !6
  %119 = load i64, ptr %15, align 8, !tbaa !29
  %120 = getelementptr inbounds nuw i8, ptr %118, i64 %119
  store ptr %120, ptr %19, align 8, !tbaa !6
  call void @EVP_MD_CTX_init(ptr noundef %22)
  %121 = load ptr, ptr %10, align 8, !tbaa !19
  %122 = call i32 @EVP_DigestInit_ex(ptr noundef %22, ptr noundef %121, ptr noundef null)
  %123 = icmp ne i32 %122, 0
  br i1 %123, label %124, label %132

124:                                              ; preds = %113
  %125 = call i32 @EVP_DigestUpdate(ptr noundef %22, ptr noundef @zeroes, i64 noundef 8)
  %126 = icmp ne i32 %125, 0
  br i1 %126, label %127, label %132

127:                                              ; preds = %124
  %128 = load ptr, ptr %9, align 8, !tbaa !6
  %129 = load i64, ptr %18, align 8, !tbaa !29
  %130 = call i32 @EVP_DigestUpdate(ptr noundef %22, ptr noundef %128, i64 noundef %129)
  %131 = icmp ne i32 %130, 0
  br i1 %131, label %133, label %132

132:                                              ; preds = %127, %124, %113
  br label %220

133:                                              ; preds = %127
  %134 = load i32, ptr %12, align 4, !tbaa !11
  %135 = icmp ne i32 %134, 0
  br i1 %135, label %136, label %143

136:                                              ; preds = %133
  %137 = load ptr, ptr %20, align 8, !tbaa !6
  %138 = load i32, ptr %12, align 4, !tbaa !11
  %139 = sext i32 %138 to i64
  %140 = call i32 @EVP_DigestUpdate(ptr noundef %22, ptr noundef %137, i64 noundef %139)
  %141 = icmp ne i32 %140, 0
  br i1 %141, label %143, label %142

142:                                              ; preds = %136
  br label %220

143:                                              ; preds = %136, %133
  %144 = load ptr, ptr %19, align 8, !tbaa !6
  %145 = call i32 @EVP_DigestFinal_ex(ptr noundef %22, ptr noundef %144, ptr noundef null)
  %146 = icmp ne i32 %145, 0
  br i1 %146, label %148, label %147

147:                                              ; preds = %143
  br label %220

148:                                              ; preds = %143
  %149 = call i32 @EVP_MD_CTX_cleanup(ptr noundef %22)
  %150 = load ptr, ptr %8, align 8, !tbaa !6
  %151 = load i64, ptr %15, align 8, !tbaa !29
  %152 = trunc i64 %151 to i32
  %153 = load ptr, ptr %19, align 8, !tbaa !6
  %154 = load i64, ptr %18, align 8, !tbaa !29
  %155 = trunc i64 %154 to i32
  %156 = load ptr, ptr %11, align 8, !tbaa !19
  %157 = call i32 @PKCS1_MGF1(ptr noundef %150, i32 noundef %152, ptr noundef %153, i32 noundef %155, ptr noundef %156)
  %158 = icmp ne i32 %157, 0
  br i1 %158, label %159, label %160

159:                                              ; preds = %148
  br label %220

160:                                              ; preds = %148
  %161 = load ptr, ptr %8, align 8, !tbaa !6
  store ptr %161, ptr %21, align 8, !tbaa !6
  %162 = load i64, ptr %17, align 8, !tbaa !29
  %163 = load i32, ptr %12, align 4, !tbaa !11
  %164 = sext i32 %163 to i64
  %165 = sub i64 %162, %164
  %166 = load i64, ptr %18, align 8, !tbaa !29
  %167 = sub i64 %165, %166
  %168 = sub i64 %167, 2
  %169 = load ptr, ptr %21, align 8, !tbaa !6
  %170 = getelementptr inbounds nuw i8, ptr %169, i64 %168
  store ptr %170, ptr %21, align 8, !tbaa !6
  %171 = load ptr, ptr %21, align 8, !tbaa !6
  %172 = getelementptr inbounds nuw i8, ptr %171, i32 1
  store ptr %172, ptr %21, align 8, !tbaa !6
  %173 = load i8, ptr %171, align 1, !tbaa !13
  %174 = zext i8 %173 to i32
  %175 = xor i32 %174, 1
  %176 = trunc i32 %175 to i8
  store i8 %176, ptr %171, align 1, !tbaa !13
  %177 = load i32, ptr %12, align 4, !tbaa !11
  %178 = icmp sgt i32 %177, 0
  br i1 %178, label %179, label %201

179:                                              ; preds = %160
  store i32 0, ptr %13, align 4, !tbaa !11
  br label %180

180:                                              ; preds = %197, %179
  %181 = load i32, ptr %13, align 4, !tbaa !11
  %182 = load i32, ptr %12, align 4, !tbaa !11
  %183 = icmp slt i32 %181, %182
  br i1 %183, label %184, label %200

184:                                              ; preds = %180
  %185 = load ptr, ptr %20, align 8, !tbaa !6
  %186 = load i32, ptr %13, align 4, !tbaa !11
  %187 = sext i32 %186 to i64
  %188 = getelementptr inbounds i8, ptr %185, i64 %187
  %189 = load i8, ptr %188, align 1, !tbaa !13
  %190 = zext i8 %189 to i32
  %191 = load ptr, ptr %21, align 8, !tbaa !6
  %192 = getelementptr inbounds nuw i8, ptr %191, i32 1
  store ptr %192, ptr %21, align 8, !tbaa !6
  %193 = load i8, ptr %191, align 1, !tbaa !13
  %194 = zext i8 %193 to i32
  %195 = xor i32 %194, %190
  %196 = trunc i32 %195 to i8
  store i8 %196, ptr %191, align 1, !tbaa !13
  br label %197

197:                                              ; preds = %184
  %198 = load i32, ptr %13, align 4, !tbaa !11
  %199 = add nsw i32 %198, 1
  store i32 %199, ptr %13, align 4, !tbaa !11
  br label %180, !llvm.loop !42

200:                                              ; preds = %180
  br label %201

201:                                              ; preds = %200, %160
  %202 = load i64, ptr %16, align 8, !tbaa !29
  %203 = icmp ne i64 %202, 0
  br i1 %203, label %204, label %215

204:                                              ; preds = %201
  %205 = load i64, ptr %16, align 8, !tbaa !29
  %206 = sub i64 8, %205
  %207 = trunc i64 %206 to i32
  %208 = ashr i32 255, %207
  %209 = load ptr, ptr %8, align 8, !tbaa !6
  %210 = getelementptr inbounds i8, ptr %209, i64 0
  %211 = load i8, ptr %210, align 1, !tbaa !13
  %212 = zext i8 %211 to i32
  %213 = and i32 %212, %208
  %214 = trunc i32 %213 to i8
  store i8 %214, ptr %210, align 1, !tbaa !13
  br label %215

215:                                              ; preds = %204, %201
  %216 = load ptr, ptr %8, align 8, !tbaa !6
  %217 = load i64, ptr %17, align 8, !tbaa !29
  %218 = sub i64 %217, 1
  %219 = getelementptr inbounds nuw i8, ptr %216, i64 %218
  store i8 -68, ptr %219, align 1, !tbaa !13
  store i32 1, ptr %14, align 4, !tbaa !11
  br label %220

220:                                              ; preds = %215, %159, %147, %142, %132, %111, %104, %93, %78, %51, %42
  %221 = load ptr, ptr %20, align 8, !tbaa !6
  call void @free(ptr noundef %221) #9
  %222 = load i32, ptr %14, align 4, !tbaa !11
  call void @llvm.lifetime.end.p0(i64 32, ptr %22) #9
  call void @llvm.lifetime.end.p0(i64 8, ptr %21) #9
  call void @llvm.lifetime.end.p0(i64 8, ptr %20) #9
  call void @llvm.lifetime.end.p0(i64 8, ptr %19) #9
  call void @llvm.lifetime.end.p0(i64 8, ptr %18) #9
  call void @llvm.lifetime.end.p0(i64 8, ptr %17) #9
  call void @llvm.lifetime.end.p0(i64 8, ptr %16) #9
  call void @llvm.lifetime.end.p0(i64 8, ptr %15) #9
  call void @llvm.lifetime.end.p0(i64 4, ptr %14) #9
  call void @llvm.lifetime.end.p0(i64 4, ptr %13) #9
  ret i32 %222
}