; Function Attrs: nounwind uwtable
define hidden range(i32 0, 2) i32 @RSA_padding_add_PKCS1_PSS_mgf1(ptr noundef %0, ptr noundef %1, ptr noundef %2, ptr noundef %3, ptr noundef %4, i32 noundef %5) local_unnamed_addr #0 {
  %7 = alloca %struct.env_md_ctx_st, align 8
  call void @llvm.lifetime.start.p0(i64 32, ptr nonnull %7) #8
  %8 = icmp eq ptr %4, null
  %spec.select = select i1 %8, ptr %3, ptr %4
  %9 = tail call i64 @EVP_MD_size(ptr noundef %3) #8
  switch i32 %5, label %12 [
    i32 -1, label %10
    i32 -2, label %15
  ]

10:                                               ; preds = %6
  %11 = trunc i64 %9 to i32
  br label %15

12:                                               ; preds = %6
  %13 = icmp slt i32 %5, -2
  br i1 %13, label %14, label %15

14:                                               ; preds = %12
  tail call void @ERR_put_error(i32 noundef 4, i32 noundef 0, i32 noundef 138, ptr noundef nonnull @.str, i32 noundef 623) #8
  br label %100

15:                                               ; preds = %6, %12, %10
  %.065 = phi i32 [ %11, %10 ], [ %5, %12 ], [ %5, %6 ]
  %16 = getelementptr inbounds nuw i8, ptr %0, i64 8
  %17 = load ptr, ptr %16, align 8, !tbaa !20
  %18 = tail call i32 @BN_is_zero(ptr noundef %17) #8
  %.not = icmp eq i32 %18, 0
  br i1 %.not, label %20, label %19

19:                                               ; preds = %15
  tail call void @ERR_put_error(i32 noundef 4, i32 noundef 0, i32 noundef 120, ptr noundef nonnull @.str, i32 noundef 628) #8
  br label %100

20:                                               ; preds = %15
  %21 = load ptr, ptr %16, align 8, !tbaa !20
  %22 = tail call i32 @BN_num_bits(ptr noundef %21) #8
  %23 = add i32 %22, 7
  %24 = and i32 %23, 7
  %25 = tail call i32 @RSA_size(ptr noundef nonnull %0) #8
  %26 = zext i32 %25 to i64
  %27 = and i32 %22, 7
  %28 = icmp eq i32 %27, 1
  br i1 %28, label %29, label %32

29:                                               ; preds = %20
  %30 = getelementptr inbounds nuw i8, ptr %1, i64 1
  store i8 0, ptr %1, align 1, !tbaa !6
  %31 = add nsw i64 %26, -1
  br label %32

32:                                               ; preds = %29, %20
  %.064 = phi i64 [ %31, %29 ], [ %26, %20 ]
  %.062 = phi ptr [ %30, %29 ], [ %1, %20 ]
  %33 = icmp eq i32 %.065, -2
  br i1 %33, label %34, label %42

34:                                               ; preds = %32
  %35 = add i64 %9, 2
  %36 = icmp ult i64 %.064, %35
  br i1 %36, label %37, label %38

37:                                               ; preds = %34
  tail call void @ERR_put_error(i32 noundef 4, i32 noundef 0, i32 noundef 114, ptr noundef nonnull @.str, i32 noundef 641) #8
  br label %100

38:                                               ; preds = %34
  %39 = sub i64 %.064, %9
  %40 = trunc i64 %39 to i32
  %41 = add i32 %40, -2
  br label %48

42:                                               ; preds = %32
  %43 = sext i32 %.065 to i64
  %44 = add i64 %9, 2
  %45 = add i64 %44, %43
  %46 = icmp ult i64 %.064, %45
  br i1 %46, label %47, label %48

47:                                               ; preds = %42
  tail call void @ERR_put_error(i32 noundef 4, i32 noundef 0, i32 noundef 114, ptr noundef nonnull @.str, i32 noundef 646) #8
  br label %100

48:                                               ; preds = %42, %38
  %.166 = phi i32 [ %41, %38 ], [ %.065, %42 ]
  %49 = icmp sgt i32 %.166, 0
  br i1 %49, label %50, label %56

50:                                               ; preds = %48
  %51 = zext nneg i32 %.166 to i64
  %52 = tail call noalias ptr @malloc(i64 noundef %51) #9
  %.not74 = icmp eq ptr %52, null
  br i1 %.not74, label %53, label %54

53:                                               ; preds = %50
  tail call void @ERR_put_error(i32 noundef 4, i32 noundef 0, i32 noundef 65, ptr noundef nonnull @.str, i32 noundef 652) #8
  br label %100

54:                                               ; preds = %50
  %55 = tail call i32 @RAND_bytes(ptr noundef nonnull %52, i64 noundef %51) #8
  %.not75 = icmp eq i32 %55, 0
  br i1 %.not75, label %100, label %56

56:                                               ; preds = %54, %48
  %.1 = phi ptr [ %52, %54 ], [ null, %48 ]
  %57 = xor i64 %9, -1
  %58 = add i64 %.064, %57
  %59 = getelementptr inbounds nuw i8, ptr %.062, i64 %58
  call void @EVP_MD_CTX_init(ptr noundef nonnull %7) #8
  %60 = call i32 @EVP_DigestInit_ex(ptr noundef nonnull %7, ptr noundef %3, ptr noundef null) #8
  %.not76 = icmp eq i32 %60, 0
  br i1 %.not76, label %100, label %61

61:                                               ; preds = %56
  %62 = call i32 @EVP_DigestUpdate(ptr noundef nonnull %7, ptr noundef nonnull @zeroes, i64 noundef 8) #8
  %.not77 = icmp eq i32 %62, 0
  br i1 %.not77, label %100, label %63

63:                                               ; preds = %61
  %64 = call i32 @EVP_DigestUpdate(ptr noundef nonnull %7, ptr noundef %2, i64 noundef %9) #8
  %.not78 = icmp eq i32 %64, 0
  br i1 %.not78, label %100, label %65

65:                                               ; preds = %63
  %.not79 = icmp eq i32 %.166, 0
  br i1 %.not79, label %69, label %66

66:                                               ; preds = %65
  %67 = sext i32 %.166 to i64
  %68 = call i32 @EVP_DigestUpdate(ptr noundef nonnull %7, ptr noundef %.1, i64 noundef %67) #8
  %.not80 = icmp eq i32 %68, 0
  br i1 %.not80, label %100, label %69

69:                                               ; preds = %66, %65
  %70 = call i32 @EVP_DigestFinal_ex(ptr noundef nonnull %7, ptr noundef %59, ptr noundef null) #8
  %.not81 = icmp eq i32 %70, 0
  br i1 %.not81, label %100, label %71

71:                                               ; preds = %69
  %72 = call i32 @EVP_MD_CTX_cleanup(ptr noundef nonnull %7) #8
  %73 = trunc i64 %58 to i32
  %74 = trunc i64 %9 to i32
  %75 = call fastcc i32 @PKCS1_MGF1(ptr noundef %.062, i32 noundef %73, ptr noundef %59, i32 noundef %74, ptr noundef %spec.select)
  %.not82 = icmp eq i32 %75, 0
  br i1 %.not82, label %76, label %100

76:                                               ; preds = %71
  %77 = sext i32 %.166 to i64
  %78 = add i64 %9, %77
  %79 = sub i64 %.064, %78
  %80 = getelementptr i8, ptr %.062, i64 %79
  %81 = getelementptr i8, ptr %80, i64 -2
  %82 = load i8, ptr %81, align 1, !tbaa !6
  %83 = xor i8 %82, 1
  store i8 %83, ptr %81, align 1, !tbaa !6
  br i1 %49, label %84, label %.loopexit

84:                                               ; preds = %76
  %85 = getelementptr i8, ptr %80, i64 -1
  %wide.trip.count = zext nneg i32 %.166 to i64
  br label %86

86:                                               ; preds = %84, %86
  %indvars.iv = phi i64 [ 0, %84 ], [ %indvars.iv.next, %86 ]
  %.087 = phi ptr [ %85, %84 ], [ %89, %86 ]
  %87 = getelementptr inbounds nuw i8, ptr %.1, i64 %indvars.iv
  %88 = load i8, ptr %87, align 1, !tbaa !6
  %89 = getelementptr inbounds nuw i8, ptr %.087, i64 1
  %90 = load i8, ptr %.087, align 1, !tbaa !6
  %91 = xor i8 %90, %88
  store i8 %91, ptr %.087, align 1, !tbaa !6
  %indvars.iv.next = add nuw nsw i64 %indvars.iv, 1
  %exitcond.not = icmp eq i64 %indvars.iv.next, %wide.trip.count
  br i1 %exitcond.not, label %.loopexit, label %86, !llvm.loop !34

.loopexit:                                        ; preds = %86, %76
  br i1 %28, label %97, label %92

92:                                               ; preds = %.loopexit
  %narrow = sub nuw nsw i32 8, %24
  %93 = lshr i32 255, %narrow
  %94 = load i8, ptr %.062, align 1, !tbaa !6
  %95 = trunc nuw nsw i32 %93 to i8
  %96 = and i8 %94, %95
  store i8 %96, ptr %.062, align 1, !tbaa !6
  br label %97

97:                                               ; preds = %92, %.loopexit
  %98 = getelementptr i8, ptr %.062, i64 %.064
  %99 = getelementptr i8, ptr %98, i64 -1
  store i8 -68, ptr %99, align 1, !tbaa !6
  br label %100

100:                                              ; preds = %71, %69, %66, %56, %61, %63, %54, %97, %53, %47, %37, %19, %14
  %.068 = phi i32 [ 0, %19 ], [ 0, %37 ], [ 0, %71 ], [ 1, %97 ], [ 0, %69 ], [ 0, %66 ], [ 0, %63 ], [ 0, %61 ], [ 0, %56 ], [ 0, %54 ], [ 0, %53 ], [ 0, %47 ], [ 0, %14 ]
  %.061 = phi ptr [ null, %19 ], [ null, %37 ], [ %.1, %71 ], [ %.1, %97 ], [ %.1, %69 ], [ %.1, %66 ], [ %.1, %63 ], [ %.1, %61 ], [ %.1, %56 ], [ %52, %54 ], [ null, %53 ], [ null, %47 ], [ null, %14 ]
  call void @free(ptr noundef %.061) #8
  call void @llvm.lifetime.end.p0(i64 32, ptr nonnull %7) #8
  ret i32 %.068
}